target datalayout = "e-m:e-p270:32:32-p271:32:32-p272:64:64-i64:64-i128:128-f80:128-n8:16:32:64-S128"
target triple = "x86_64-pc-linux-gnu"

%"struct.std::_Vector_base" = type { %"struct.std::_Vector_base<t_inpfile, std::allocator<t_inpfile>>::_Vector_impl" }
%"struct.std::_Vector_base<t_inpfile, std::allocator<t_inpfile>>::_Vector_impl" = type { %"struct.std::_Vector_base<t_inpfile, std::allocator<t_inpfile>>::_Vector_impl_data" }
%"struct.std::_Vector_base<t_inpfile, std::allocator<t_inpfile>>::_Vector_impl_data" = type { ptr, ptr, ptr }
%"class.std::__cxx11::basic_string" = type { %"struct.std::__cxx11::basic_string<char>::_Alloc_hider", i64, %union.anon }
%"struct.std::__cxx11::basic_string<char>::_Alloc_hider" = type { ptr }
%union.anon = type { i64, [8 x i8] }
%"class.std::basic_string_view" = type { i64, ptr }
%struct.t_inpfile = type <{ i32, i8, i8, i8, i8, %"class.std::__cxx11::basic_string", %"class.std::__cxx11::basic_string", i32, [4 x i8] }>
%"class.__gnu_cxx::__normal_iterator.18" = type { ptr }

@stderr = external global ptr, align 8
@.str.33 = private unnamed_addr constant [47 x i8] c"Invalid enum '%s' for variable %s, using '%s'\0A\00", align 1
@.str.34 = private unnamed_addr constant [22 x i8] c"Next time use one of:\00", align 1
@.str.35 = private unnamed_addr constant [6 x i8] c" '%s'\00", align 1
@.str.36 = private unnamed_addr constant [4 x i8] c"%s\0A\00", align 1

; Function Attrs: mustprogress nounwind uwtable
define linkonce_odr void @_ZN9__gnu_cxx17__normal_iteratorIP9t_inpfileSt6vectorIS1_SaIS1_EEEC2ERKS2_(ptr noundef nonnull align 8 dereferenceable(8) %0, ptr noundef nonnull align 8 dereferenceable(8) %1) unnamed_addr #1 comdat align 2 {
  %3 = alloca ptr, align 8
  %4 = alloca ptr, align 8
  store ptr %0, ptr %3, align 8, !tbaa !116
  store ptr %1, ptr %4, align 8, !tbaa !118
  %5 = load ptr, ptr %3, align 8
  %6 = getelementptr inbounds nuw %"class.__gnu_cxx::__normal_iterator.18", ptr %5, i32 0, i32 0
  %7 = load ptr, ptr %4, align 8, !tbaa !118
  %8 = load ptr, ptr %7, align 8, !tbaa !103
  store ptr %8, ptr %6, align 8, !tbaa !120
  ret void
}

; Function Attrs: mustprogress nounwind uwtable
define available_externally noundef ptr @_ZNKSt7__cxx1112basic_stringIcSt11char_traitsIcESaIcEE7_M_dataEv(ptr noundef nonnull align 8 dereferenceable(32) %0) #1 align 2 {
  %2 = alloca ptr, align 8
  store ptr %0, ptr %2, align 8, !tbaa !25
  %3 = load ptr, ptr %2, align 8
  %4 = getelementptr inbounds nuw %"class.std::__cxx11::basic_string", ptr %3, i32 0, i32 0
  %5 = getelementptr inbounds nuw %"struct.std::__cxx11::basic_string<char>::_Alloc_hider", ptr %4, i32 0, i32 0
  %6 = load ptr, ptr %5, align 8, !tbaa !70
  ret ptr %6
}

; Function Attrs: mustprogress nounwind uwtable
define linkonce_odr noundef i64 @_ZNSt11char_traitsIcE6lengthEPKc(ptr noundef %0) #1 comdat align 2 {
  %2 = alloca ptr, align 8
  store ptr %0, ptr %2, align 8, !tbaa !34
  %3 = load ptr, ptr %2, align 8, !tbaa !34
  %4 = call i64 @strlen(ptr noundef %3) #17
  ret i64 %4
}

; Function Attrs: mustprogress nounwind uwtable
define available_externally noundef i64 @_ZNKSt7__cxx1112basic_stringIcSt11char_traitsIcESaIcEE4sizeEv(ptr noundef nonnull align 8 dereferenceable(32) %0) #1 align 2 {
  %2 = alloca ptr, align 8
  store ptr %0, ptr %2, align 8, !tbaa !25
  %3 = load ptr, ptr %2, align 8
  %4 = getelementptr inbounds nuw %"class.std::__cxx11::basic_string", ptr %3, i32 0, i32 1
  %5 = load i64, ptr %4, align 8, !tbaa !62
  ret i64 %5
}

; Function Attrs: mustprogress nounwind uwtable
define linkonce_odr noundef nonnull align 8 dereferenceable(76) ptr @_ZNK9__gnu_cxx17__normal_iteratorIP9t_inpfileSt6vectorIS1_SaIS1_EEEdeEv(ptr noundef nonnull align 8 dereferenceable(8) %0) #1 comdat align 2 {
  %2 = alloca ptr, align 8
  store ptr %0, ptr %2, align 8, !tbaa !116
  %3 = load ptr, ptr %2, align 8
  %4 = getelementptr inbounds nuw %"class.__gnu_cxx::__normal_iterator.18", ptr %3, i32 0, i32 0
  %5 = load ptr, ptr %4, align 8, !tbaa !120
  ret ptr %5
}

; Function Attrs: mustprogress nounwind uwtable
define linkonce_odr ptr @_ZNK9__gnu_cxx17__normal_iteratorIP9t_inpfileSt6vectorIS1_SaIS1_EEEmiEl(ptr noundef nonnull align 8 dereferenceable(8) %0, i64 noundef %1) #1 comdat align 2 {
  %3 = alloca %"class.__gnu_cxx::__normal_iterator.18", align 8
  %4 = alloca ptr, align 8
  %5 = alloca i64, align 8
  %6 = alloca ptr, align 8
  store ptr %0, ptr %4, align 8, !tbaa !116
  store i64 %1, ptr %5, align 8, !tbaa !19
  %7 = load ptr, ptr %4, align 8
  call void @llvm.lifetime.start.p0(i64 8, ptr %6) #17
  %8 = getelementptr inbounds nuw %"class.__gnu_cxx::__normal_iterator.18", ptr %7, i32 0, i32 0
  %9 = load ptr, ptr %8, align 8, !tbaa !120
  %10 = load i64, ptr %5, align 8, !tbaa !19
  %11 = sub i64 0, %10
  %12 = getelementptr inbounds %struct.t_inpfile, ptr %9, i64 %11
  store ptr %12, ptr %6, align 8, !tbaa !103
  call void @_ZN9__gnu_cxx17__normal_iteratorIP9t_inpfileSt6vectorIS1_SaIS1_EEEC2ERKS2_(ptr noundef nonnull align 8 dereferenceable(8) %3, ptr noundef nonnull align 8 dereferenceable(8) %6) #17
  call void @llvm.lifetime.end.p0(i64 8, ptr %6) #17
  %13 = getelementptr inbounds nuw %"class.__gnu_cxx::__normal_iterator.18", ptr %3, i32 0, i32 0
  %14 = load ptr, ptr %13, align 8
  ret ptr %14
}

; Function Attrs: mustprogress nounwind uwtable
define linkonce_odr ptr @_ZNSt6vectorI9t_inpfileSaIS0_EE3endEv(ptr noundef nonnull align 8 dereferenceable(24) %0) #1 comdat align 2 {
  %2 = alloca %"class.__gnu_cxx::__normal_iterator.18", align 8
  %3 = alloca ptr, align 8
  store ptr %0, ptr %3, align 8, !tbaa !23
  %4 = load ptr, ptr %3, align 8
  %5 = getelementptr inbounds nuw %"struct.std::_Vector_base", ptr %4, i32 0, i32 0
  %6 = getelementptr inbounds nuw %"struct.std::_Vector_base<t_inpfile, std::allocator<t_inpfile>>::_Vector_impl_data", ptr %5, i32 0, i32 1
  call void @_ZN9__gnu_cxx17__normal_iteratorIP9t_inpfileSt6vectorIS1_SaIS1_EEEC2ERKS2_(ptr noundef nonnull align 8 dereferenceable(8) %2, ptr noundef nonnull align 8 dereferenceable(8) %6) #17
  %7 = getelementptr inbounds nuw %"class.__gnu_cxx::__normal_iterator.18", ptr %2, i32 0, i32 0
  %8 = load ptr, ptr %7, align 8
  ret ptr %8
}

; Function Attrs: mustprogress uwtable
define available_externally noundef nonnull align 8 dereferenceable(32) ptr @_ZNSt7__cxx1112basic_stringIcSt11char_traitsIcESaIcEEaSEPKc(ptr noundef nonnull align 8 dereferenceable(32) %0, ptr noundef %1) #0 align 2 {
  %3 = alloca ptr, align 8
  %4 = alloca ptr, align 8
  store ptr %0, ptr %3, align 8, !tbaa !25
  store ptr %1, ptr %4, align 8, !tbaa !34
  %5 = load ptr, ptr %3, align 8
  %6 = load ptr, ptr %4, align 8, !tbaa !34
  %7 = call noundef nonnull align 8 dereferenceable(32) ptr @_ZNSt7__cxx1112basic_stringIcSt11char_traitsIcESaIcEE6assignEPKc(ptr noundef nonnull align 8 dereferenceable(32) %5, ptr noundef %6)
  ret ptr %7
}

; Function Attrs: mustprogress nounwind uwtable
define linkonce_odr void @_ZNSt17basic_string_viewIcSt11char_traitsIcEEC2EPKc(ptr noundef nonnull align 8 dereferenceable(16) %0, ptr noundef nonnull %1) unnamed_addr #1 comdat align 2 {
  %3 = alloca ptr, align 8
  %4 = alloca ptr, align 8
  store ptr %0, ptr %3, align 8, !tbaa !77
  store ptr %1, ptr %4, align 8, !tbaa !34
  %5 = load ptr, ptr %3, align 8
  %6 = getelementptr inbounds nuw %"class.std::basic_string_view", ptr %5, i32 0, i32 0
  %7 = load ptr, ptr %4, align 8, !tbaa !34
  %8 = call noundef i64 @_ZNSt11char_traitsIcE6lengthEPKc(ptr noundef %7)
  store i64 %8, ptr %6, align 8, !tbaa !79
  %9 = getelementptr inbounds nuw %"class.std::basic_string_view", ptr %5, i32 0, i32 1
  %10 = load ptr, ptr %4, align 8, !tbaa !34
  store ptr %10, ptr %9, align 8, !tbaa !81
  ret void
}

; Function Attrs: mustprogress nounwind uwtable
define available_externally noundef ptr @_ZNKSt7__cxx1112basic_stringIcSt11char_traitsIcESaIcEE5c_strEv(ptr noundef nonnull align 8 dereferenceable(32) %0) #1 align 2 {
  %2 = alloca ptr, align 8
  store ptr %0, ptr %2, align 8, !tbaa !25
  %3 = load ptr, ptr %2, align 8
  %4 = call noundef ptr @_ZNKSt7__cxx1112basic_stringIcSt11char_traitsIcESaIcEE7_M_dataEv(ptr noundef nonnull align 8 dereferenceable(32) %3)
  ret ptr %4
}

; Function Attrs: mustprogress nounwind uwtable
define linkonce_odr noundef nonnull align 8 dereferenceable(76) ptr @_ZNSt6vectorI9t_inpfileSaIS0_EEixEm(ptr noundef nonnull align 8 dereferenceable(24) %0, i64 noundef %1) #1 comdat align 2 {
  %3 = alloca ptr, align 8
  %4 = alloca i64, align 8
  store ptr %0, ptr %3, align 8, !tbaa !23
  store i64 %1, ptr %4, align 8, !tbaa !19
  %5 = load ptr, ptr %3, align 8
  %6 = getelementptr inbounds nuw %"struct.std::_Vector_base", ptr %5, i32 0, i32 0
  %7 = getelementptr inbounds nuw %"struct.std::_Vector_base<t_inpfile, std::allocator<t_inpfile>>::_Vector_impl_data", ptr %6, i32 0, i32 0
  %8 = load ptr, ptr %7, align 8, !tbaa !47
  %9 = load i64, ptr %4, align 8, !tbaa !19
  %10 = getelementptr inbounds nuw %struct.t_inpfile, ptr %8, i64 %9
  ret ptr %10
}

; Function Attrs: mustprogress uwtable
define available_externally noundef nonnull align 8 dereferenceable(32) ptr @_ZNSt7__cxx1112basic_stringIcSt11char_traitsIcESaIcEE6assignEPKc(ptr noundef nonnull align 8 dereferenceable(32) %0, ptr noundef %1) #0 align 2 {
  %3 = alloca ptr, align 8
  %4 = alloca ptr, align 8
  store ptr %0, ptr %3, align 8, !tbaa !25
  store ptr %1, ptr %4, align 8, !tbaa !34
  %5 = load ptr, ptr %3, align 8
  %6 = call noundef i64 @_ZNKSt7__cxx1112basic_stringIcSt11char_traitsIcESaIcEE4sizeEv(ptr noundef nonnull align 8 dereferenceable(32) %5) #17
  %7 = load ptr, ptr %4, align 8, !tbaa !34
  %8 = load ptr, ptr %4, align 8, !tbaa !34
  %9 = call noundef i64 @_ZNSt11char_traitsIcE6lengthEPKc(ptr noundef %8)
  %10 = call noundef nonnull align 8 dereferenceable(32) ptr @_ZNSt7__cxx1112basic_stringIcSt11char_traitsIcESaIcEE10_M_replaceEmmPKcm(ptr noundef nonnull align 8 dereferenceable(32) %5, i64 noundef 0, i64 noundef %6, ptr noundef %7, i64 noundef %9)
  ret ptr %10
}

; Function Attrs: mustprogress nounwind uwtable
define linkonce_odr noundef nonnull align 8 dereferenceable(76) ptr @_ZNSt6vectorI9t_inpfileSaIS0_EE4backEv(ptr noundef nonnull align 8 dereferenceable(24) %0) #1 comdat align 2 {
  %2 = alloca ptr, align 8
  %3 = alloca %"class.__gnu_cxx::__normal_iterator.18", align 8
  %4 = alloca %"class.__gnu_cxx::__normal_iterator.18", align 8
  store ptr %0, ptr %2, align 8, !tbaa !23
  %5 = load ptr, ptr %2, align 8
  call void @llvm.lifetime.start.p0(i64 8, ptr %3) #17
  call void @llvm.lifetime.start.p0(i64 8, ptr %4) #17
  %6 = call ptr @_ZNSt6vectorI9t_inpfileSaIS0_EE3endEv(ptr noundef nonnull align 8 dereferenceable(24) %5) #17
  %7 = getelementptr inbounds nuw %"class.__gnu_cxx::__normal_iterator.18", ptr %4, i32 0, i32 0
  store ptr %6, ptr %7, align 8
  %8 = call ptr @_ZNK9__gnu_cxx17__normal_iteratorIP9t_inpfileSt6vectorIS1_SaIS1_EEEmiEl(ptr noundef nonnull align 8 dereferenceable(8) %4, i64 noundef 1) #17
  %9 = getelementptr inbounds nuw %"class.__gnu_cxx::__normal_iterator.18", ptr %3, i32 0, i32 0
  store ptr %8, ptr %9, align 8
  %10 = call noundef nonnull align 8 dereferenceable(76) ptr @_ZNK9__gnu_cxx17__normal_iteratorIP9t_inpfileSt6vectorIS1_SaIS1_EEEdeEv(ptr noundef nonnull align 8 dereferenceable(8) %3) #17
  call void @llvm.lifetime.end.p0(i64 8, ptr %4) #17
  call void @llvm.lifetime.end.p0(i64 8, ptr %3) #17
  ret ptr %10
}

; Function Attrs: mustprogress uwtable
define noundef i32 @_Z10get_eeenumPSt6vectorI9t_inpfileSaIS0_EEPKcPKS5_P14WarningHandler(ptr noundef %0, ptr noundef %1, ptr noundef %2, ptr noundef %3) #0 {
  %5 = alloca i32, align 4
  %6 = alloca ptr, align 8
  %7 = alloca ptr, align 8
  %8 = alloca ptr, align 8
  %9 = alloca ptr, align 8
  %10 = alloca ptr, align 8
  %11 = alloca i32, align 4
  %12 = alloca [4096 x i8], align 16
  %13 = alloca i32, align 4
  %14 = alloca i32, align 4
  %15 = alloca i32, align 4
  %16 = alloca i32, align 4
  %17 = alloca %"class.std::basic_string_view", align 8
  store ptr %0, ptr %6, align 8, !tbaa !23
  store ptr %1, ptr %7, align 8, !tbaa !34
  store ptr %2, ptr %8, align 8, !tbaa !74
  store ptr %3, ptr %9, align 8, !tbaa !11
  call void @llvm.lifetime.start.p0(i64 8, ptr %10) #17
  %18 = load ptr, ptr %6, align 8, !tbaa !23
  store ptr %18, ptr %10, align 8, !tbaa !23
  call void @llvm.lifetime.start.p0(i64 4, ptr %11) #17
  store i32 0, ptr %11, align 4, !tbaa !15
  call void @llvm.lifetime.start.p0(i64 4096, ptr %12) #17
  call void @llvm.lifetime.start.p0(i64 4, ptr %13) #17
  %19 = load ptr, ptr %6, align 8, !tbaa !23
  %20 = load ptr, ptr %7, align 8, !tbaa !34
  %21 = call noundef i32 @_Z8get_einpPSt6vectorI9t_inpfileSaIS0_EEPKc(ptr noundef %19, ptr noundef %20)
  store i32 %21, ptr %13, align 4, !tbaa !15
  %22 = load i32, ptr %13, align 4, !tbaa !15
  %23 = icmp eq i32 %22, -1
  br i1 %23, label %24, label %32

24:                                               ; preds = %4
  %25 = load ptr, ptr %10, align 8, !tbaa !23
  %26 = call noundef nonnull align 8 dereferenceable(76) ptr @_ZNSt6vectorI9t_inpfileSaIS0_EE4backEv(ptr noundef nonnull align 8 dereferenceable(24) %25) #17
  %27 = getelementptr inbounds nuw %struct.t_inpfile, ptr %26, i32 0, i32 6
  %28 = load ptr, ptr %8, align 8, !tbaa !74
  %29 = getelementptr inbounds ptr, ptr %28, i64 0
  %30 = load ptr, ptr %29, align 8, !tbaa !34
  %31 = call noundef nonnull align 8 dereferenceable(32) ptr @_ZNSt7__cxx1112basic_stringIcSt11char_traitsIcESaIcEE6assignEPKc(ptr noundef nonnull align 8 dereferenceable(32) %27, ptr noundef %30)
  store i32 0, ptr %5, align 4
  store i32 1, ptr %14, align 4
  br label %138

32:                                               ; preds = %4
  call void @llvm.lifetime.start.p0(i64 4, ptr %15) #17
  store i32 0, ptr %15, align 4, !tbaa !15
  store i32 0, ptr %15, align 4, !tbaa !15
  br label %33

33:                                               ; preds = %56, %32
  %34 = load ptr, ptr %8, align 8, !tbaa !74
  %35 = load i32, ptr %15, align 4, !tbaa !15
  %36 = sext i32 %35 to i64
  %37 = getelementptr inbounds ptr, ptr %34, i64 %36
  %38 = load ptr, ptr %37, align 8, !tbaa !34
  %39 = icmp ne ptr %38, null
  br i1 %39, label %40, label %59

40:                                               ; preds = %33
  %41 = load ptr, ptr %8, align 8, !tbaa !74
  %42 = load i32, ptr %15, align 4, !tbaa !15
  %43 = sext i32 %42 to i64
  %44 = getelementptr inbounds ptr, ptr %41, i64 %43
  %45 = load ptr, ptr %44, align 8, !tbaa !34
  %46 = load ptr, ptr %10, align 8, !tbaa !23
  %47 = load i32, ptr %13, align 4, !tbaa !15
  %48 = sext i32 %47 to i64
  %49 = call noundef nonnull align 8 dereferenceable(76) ptr @_ZNSt6vectorI9t_inpfileSaIS0_EEixEm(ptr noundef nonnull align 8 dereferenceable(24) %46, i64 noundef %48) #17
  %50 = getelementptr inbounds nuw %struct.t_inpfile, ptr %49, i32 0, i32 6
  %51 = call noundef ptr @_ZNKSt7__cxx1112basic_stringIcSt11char_traitsIcESaIcEE5c_strEv(ptr noundef nonnull align 8 dereferenceable(32) %50) #17
  %52 = call noundef i32 @_Z18gmx_strcasecmp_minPKcS0_(ptr noundef %45, ptr noundef %51)
  %53 = icmp eq i32 %52, 0
  br i1 %53, label %54, label %55

54:                                               ; preds = %40
  br label %59

55:                                               ; preds = %40
  br label %56

56:                                               ; preds = %55
  %57 = load i32, ptr %15, align 4, !tbaa !15
  %58 = add nsw i32 %57, 1
  store i32 %58, ptr %15, align 4, !tbaa !15
  br label %33, !llvm.loop !350

59:                                               ; preds = %54, %33
  %60 = load ptr, ptr %8, align 8, !tbaa !74
  %61 = load i32, ptr %15, align 4, !tbaa !15
  %62 = sext i32 %61 to i64
  %63 = getelementptr inbounds ptr, ptr %60, i64 %62
  %64 = load ptr, ptr %63, align 8, !tbaa !34
  %65 = icmp eq ptr %64, null
  br i1 %65, label %66, label %135

66:                                               ; preds = %59
  %67 = getelementptr inbounds [4096 x i8], ptr %12, i64 0, i64 0
  %68 = load ptr, ptr %10, align 8, !tbaa !23
  %69 = load i32, ptr %13, align 4, !tbaa !15
  %70 = sext i32 %69 to i64
  %71 = call noundef nonnull align 8 dereferenceable(76) ptr @_ZNSt6vectorI9t_inpfileSaIS0_EEixEm(ptr noundef nonnull align 8 dereferenceable(24) %68, i64 noundef %70) #17
  %72 = getelementptr inbounds nuw %struct.t_inpfile, ptr %71, i32 0, i32 6
  %73 = call noundef ptr @_ZNKSt7__cxx1112basic_stringIcSt11char_traitsIcESaIcEE5c_strEv(ptr noundef nonnull align 8 dereferenceable(32) %72) #17
  %74 = load ptr, ptr %7, align 8, !tbaa !34
  %75 = load ptr, ptr %8, align 8, !tbaa !74
  %76 = getelementptr inbounds ptr, ptr %75, i64 0
  %77 = load ptr, ptr %76, align 8, !tbaa !34
  %78 = call i32 (ptr, ptr, ...) @sprintf(ptr noundef %67, ptr noundef @.str.33, ptr noundef %73, ptr noundef %74, ptr noundef %77) #17
  %79 = load i32, ptr %11, align 4, !tbaa !15
  %80 = add nsw i32 %79, %78
  store i32 %80, ptr %11, align 4, !tbaa !15
  %81 = getelementptr inbounds [4096 x i8], ptr %12, i64 0, i64 0
  %82 = load i32, ptr %11, align 4, !tbaa !15
  %83 = sext i32 %82 to i64
  %84 = getelementptr inbounds i8, ptr %81, i64 %83
  %85 = call i32 (ptr, ptr, ...) @sprintf(ptr noundef %84, ptr noundef @.str.34) #17
  %86 = load i32, ptr %11, align 4, !tbaa !15
  %87 = add nsw i32 %86, %85
  store i32 %87, ptr %11, align 4, !tbaa !15
  call void @llvm.lifetime.start.p0(i64 4, ptr %16) #17
  store i32 0, ptr %16, align 4, !tbaa !15
  br label %88

88:                                               ; preds = %95, %66
  %89 = load ptr, ptr %8, align 8, !tbaa !74
  %90 = load i32, ptr %16, align 4, !tbaa !15
  %91 = sext i32 %90 to i64
  %92 = getelementptr inbounds ptr, ptr %89, i64 %91
  %93 = load ptr, ptr %92, align 8, !tbaa !34
  %94 = icmp ne ptr %93, null
  br i1 %94, label %95, label %110

95:                                               ; preds = %88
  %96 = getelementptr inbounds [4096 x i8], ptr %12, i64 0, i64 0
  %97 = load i32, ptr %11, align 4, !tbaa !15
  %98 = sext i32 %97 to i64
  %99 = getelementptr inbounds i8, ptr %96, i64 %98
  %100 = load ptr, ptr %8, align 8, !tbaa !74
  %101 = load i32, ptr %16, align 4, !tbaa !15
  %102 = sext i32 %101 to i64
  %103 = getelementptr inbounds ptr, ptr %100, i64 %102
  %104 = load ptr, ptr %103, align 8, !tbaa !34
  %105 = call i32 (ptr, ptr, ...) @sprintf(ptr noundef %99, ptr noundef @.str.35, ptr noundef %104) #17
  %106 = load i32, ptr %11, align 4, !tbaa !15
  %107 = add nsw i32 %106, %105
  store i32 %107, ptr %11, align 4, !tbaa !15
  %108 = load i32, ptr %16, align 4, !tbaa !15
  %109 = add nsw i32 %108, 1
  store i32 %109, ptr %16, align 4, !tbaa !15
  br label %88, !llvm.loop !351

110:                                              ; preds = %88
  %111 = load ptr, ptr %9, align 8, !tbaa !11
  %112 = icmp ne ptr %111, null
  br i1 %112, label %113, label %120

113:                                              ; preds = %110
  %114 = load ptr, ptr %9, align 8, !tbaa !11
  %115 = getelementptr inbounds [4096 x i8], ptr %12, i64 0, i64 0
  call void @_ZNSt17basic_string_viewIcSt11char_traitsIcEEC2EPKc(ptr noundef nonnull align 8 dereferenceable(16) %17, ptr noundef %115) #17
  %116 = getelementptr inbounds nuw { i64, ptr }, ptr %17, i32 0, i32 0
  %117 = load i64, ptr %116, align 8
  %118 = getelementptr inbounds nuw { i64, ptr }, ptr %17, i32 0, i32 1
  %119 = load ptr, ptr %118, align 8
  call void @_ZN14WarningHandler8addErrorESt17basic_string_viewIcSt11char_traitsIcEE(ptr noundef nonnull align 8 dereferenceable(64) %114, i64 %117, ptr %119)
  br label %124

120:                                              ; preds = %110
  %121 = load ptr, ptr @stderr, align 8, !tbaa !13
  %122 = getelementptr inbounds [4096 x i8], ptr %12, i64 0, i64 0
  %123 = call i32 (ptr, ptr, ...) @fprintf(ptr noundef %121, ptr noundef @.str.36, ptr noundef %122) #17
  br label %124

124:                                              ; preds = %120, %113
  %125 = load ptr, ptr %8, align 8, !tbaa !74
  %126 = getelementptr inbounds ptr, ptr %125, i64 0
  %127 = load ptr, ptr %126, align 8, !tbaa !34
  %128 = call noundef ptr @_Z10gmx_strdupPKc(ptr noundef %127)
  %129 = load ptr, ptr %10, align 8, !tbaa !23
  %130 = load i32, ptr %13, align 4, !tbaa !15
  %131 = sext i32 %130 to i64
  %132 = call noundef nonnull align 8 dereferenceable(76) ptr @_ZNSt6vectorI9t_inpfileSaIS0_EEixEm(ptr noundef nonnull align 8 dereferenceable(24) %129, i64 noundef %131) #17
  %133 = getelementptr inbounds nuw %struct.t_inpfile, ptr %132, i32 0, i32 6
  %134 = call noundef nonnull align 8 dereferenceable(32) ptr @_ZNSt7__cxx1112basic_stringIcSt11char_traitsIcESaIcEEaSEPKc(ptr noundef nonnull align 8 dereferenceable(32) %133, ptr noundef %128)
  store i32 0, ptr %5, align 4
  store i32 1, ptr %14, align 4
  call void @llvm.lifetime.end.p0(i64 4, ptr %16) #17
  br label %137

135:                                              ; preds = %59
  %136 = load i32, ptr %15, align 4, !tbaa !15
  store i32 %136, ptr %5, align 4
  store i32 1, ptr %14, align 4
  br label %137

137:                                              ; preds = %135, %124
  call void @llvm.lifetime.end.p0(i64 4, ptr %15) #17
  br label %138

138:                                              ; preds = %137, %24
  call void @llvm.lifetime.end.p0(i64 4, ptr %13) #17
  call void @llvm.lifetime.end.p0(i64 4096, ptr %12) #17
  call void @llvm.lifetime.end.p0(i64 4, ptr %11) #17
  call void @llvm.lifetime.end.p0(i64 8, ptr %10) #17
  %139 = load i32, ptr %5, align 4
  ret i32 %139
}