; Function Attrs: mustprogress uwtable
define noundef i32 @_Z10get_eeenumPSt6vectorI9t_inpfileSaIS0_EEPKcPKS5_P14WarningHandler(ptr noundef %0, ptr noundef %1, ptr noundef readonly captures(none) %2, ptr noundef %3) local_unnamed_addr #0 {
  %5 = alloca [4096 x i8], align 16
  call void @llvm.lifetime.start.p0(i64 4096, ptr nonnull %5) #23
  %6 = tail call noundef i32 @_Z8get_einpPSt6vectorI9t_inpfileSaIS0_EEPKc(ptr noundef %0, ptr noundef %1)
  %7 = icmp eq i32 %6, -1
  br i1 %7, label %9, label %.preheader

.preheader:                                       ; preds = %4
  %8 = load ptr, ptr %2, align 8, !tbaa !169
  %.not46 = icmp eq ptr %8, null
  %.pre = sext i32 %6 to i64
  br i1 %.not46, label %.thread, label %.lr.ph

9:                                                ; preds = %4
  %10 = getelementptr inbounds nuw i8, ptr %0, i64 8
  %11 = load ptr, ptr %10, align 8, !tbaa !143
  %12 = getelementptr inbounds i8, ptr %11, i64 -40
  %13 = load ptr, ptr %2, align 8, !tbaa !169
  %14 = getelementptr inbounds i8, ptr %11, i64 -32
  %15 = load i64, ptr %14, align 8, !tbaa !21
  %16 = tail call noundef i64 @strlen(ptr noundef nonnull dereferenceable(1) %13) #23
  %17 = tail call noundef nonnull align 8 dereferenceable(32) ptr @_ZNSt7__cxx1112basic_stringIcSt11char_traitsIcESaIcEE10_M_replaceEmmPKcm(ptr noundef nonnull align 8 dereferenceable(32) %12, i64 noundef 0, i64 noundef %15, ptr noundef nonnull %13, i64 noundef %16)
  br label %61

.lr.ph:                                           ; preds = %.preheader, %24
  %indvars.iv = phi i64 [ %indvars.iv.next, %24 ], [ 0, %.preheader ]
  %18 = phi ptr [ %26, %24 ], [ %8, %.preheader ]
  %19 = load ptr, ptr %0, align 8, !tbaa !36
  %20 = getelementptr inbounds nuw %struct.t_inpfile, ptr %19, i64 %.pre, i32 6
  %21 = load ptr, ptr %20, align 8, !tbaa !15
  %22 = tail call noundef i32 @_Z18gmx_strcasecmp_minPKcS0_(ptr noundef nonnull %18, ptr noundef %21)
  %23 = icmp eq i32 %22, 0
  br i1 %23, label %27, label %24

24:                                               ; preds = %.lr.ph
  %indvars.iv.next = add nuw nsw i64 %indvars.iv, 1
  %25 = getelementptr inbounds nuw ptr, ptr %2, i64 %indvars.iv.next
  %26 = load ptr, ptr %25, align 8, !tbaa !169
  %.not = icmp eq ptr %26, null
  br i1 %.not, label %.thread, label %.lr.ph, !llvm.loop !182

27:                                               ; preds = %.lr.ph
  %28 = trunc nuw nsw i64 %indvars.iv to i32
  %29 = getelementptr inbounds nuw ptr, ptr %2, i64 %indvars.iv
  %.pr = load ptr, ptr %29, align 8, !tbaa !169
  %30 = icmp eq ptr %.pr, null
  br i1 %30, label %.thread, label %61

.thread:                                          ; preds = %24, %.preheader, %27
  %31 = load ptr, ptr %0, align 8, !tbaa !36
  %32 = getelementptr inbounds nuw %struct.t_inpfile, ptr %31, i64 %.pre, i32 6
  %33 = load ptr, ptr %32, align 8, !tbaa !15
  %34 = load ptr, ptr %2, align 8, !tbaa !169
  %35 = call i32 (ptr, ptr, ...) @sprintf(ptr noundef nonnull dereferenceable(1) %5, ptr noundef nonnull dereferenceable(1) @.str.33, ptr noundef %33, ptr noundef %1, ptr noundef %34) #23
  %36 = sext i32 %35 to i64
  %37 = getelementptr inbounds i8, ptr %5, i64 %36
  call void @llvm.memcpy.p0.p0.i64(ptr noundef nonnull align 1 dereferenceable(22) %37, ptr noundef nonnull align 1 dereferenceable(22) @.str.34, i64 22, i1 false)
  %38 = load ptr, ptr %2, align 8, !tbaa !169
  %.not4248 = icmp eq ptr %38, null
  br i1 %.not4248, label %._crit_edge, label %.lr.ph51.preheader

.lr.ph51.preheader:                               ; preds = %.thread
  %39 = add nsw i32 %35, 21
  br label %.lr.ph51

.lr.ph51:                                         ; preds = %.lr.ph51.preheader, %.lr.ph51
  %indvars.iv55 = phi i64 [ 0, %.lr.ph51.preheader ], [ %indvars.iv.next56, %.lr.ph51 ]
  %40 = phi ptr [ %38, %.lr.ph51.preheader ], [ %46, %.lr.ph51 ]
  %.03749 = phi i32 [ %39, %.lr.ph51.preheader ], [ %44, %.lr.ph51 ]
  %41 = sext i32 %.03749 to i64
  %42 = getelementptr inbounds i8, ptr %5, i64 %41
  %43 = call i32 (ptr, ptr, ...) @sprintf(ptr noundef nonnull dereferenceable(1) %42, ptr noundef nonnull dereferenceable(1) @.str.35, ptr noundef nonnull %40) #23
  %44 = add nsw i32 %43, %.03749
  %indvars.iv.next56 = add nuw nsw i64 %indvars.iv55, 1
  %45 = getelementptr inbounds nuw ptr, ptr %2, i64 %indvars.iv.next56
  %46 = load ptr, ptr %45, align 8, !tbaa !169
  %.not42 = icmp eq ptr %46, null
  br i1 %.not42, label %._crit_edge, label %.lr.ph51, !llvm.loop !183

._crit_edge:                                      ; preds = %.lr.ph51, %.thread
  %.not43 = icmp eq ptr %3, null
  br i1 %.not43, label %49, label %47

47:                                               ; preds = %._crit_edge
  %48 = call noundef i64 @strlen(ptr noundef nonnull dereferenceable(1) %5) #23
  call void @_ZN14WarningHandler8addErrorESt17basic_string_viewIcSt11char_traitsIcEE(ptr noundef nonnull align 8 dereferenceable(64) %3, i64 %48, ptr nonnull %5)
  br label %52

49:                                               ; preds = %._crit_edge
  %50 = load ptr, ptr @stderr, align 8, !tbaa !4
  %51 = call i32 (ptr, ptr, ...) @fprintf(ptr noundef %50, ptr noundef nonnull @.str.36, ptr noundef nonnull %5) #29
  br label %52

52:                                               ; preds = %49, %47
  %53 = load ptr, ptr %2, align 8, !tbaa !169
  %54 = call noundef ptr @_Z10gmx_strdupPKc(ptr noundef %53)
  %55 = load ptr, ptr %0, align 8, !tbaa !36
  %56 = getelementptr inbounds nuw %struct.t_inpfile, ptr %55, i64 %.pre, i32 6
  %57 = getelementptr inbounds nuw i8, ptr %56, i64 8
  %58 = load i64, ptr %57, align 8, !tbaa !21
  %59 = call noundef i64 @strlen(ptr noundef nonnull dereferenceable(1) %54) #23
  %60 = call noundef nonnull align 8 dereferenceable(32) ptr @_ZNSt7__cxx1112basic_stringIcSt11char_traitsIcESaIcEE10_M_replaceEmmPKcm(ptr noundef nonnull align 8 dereferenceable(32) %56, i64 noundef 0, i64 noundef %58, ptr noundef nonnull %54, i64 noundef %59)
  br label %61

61:                                               ; preds = %52, %27, %9
  %.036 = phi i32 [ 0, %9 ], [ 0, %52 ], [ %28, %27 ]
  call void @llvm.lifetime.end.p0(i64 4096, ptr nonnull %5) #23
  ret i32 %.036
}